target datalayout = "e-m:e-p270:32:32-p271:32:32-p272:64:64-i64:64-i128:128-f80:128-n8:16:32:64-S128"
target triple = "x86_64-unknown-linux-gnu"

%struct.ecc_point = type { [1 x %struct.sp_int], [1 x %struct.sp_int], [1 x %struct.sp_int] }
%struct.sp_int = type { i32, i32, [129 x i64] }

; Function Attrs: nounwind uwtable
define internal i32 @ecc_check_order_minus_1(ptr noundef %k, ptr noundef %tG, ptr noundef %R, ptr noundef %modulus, ptr noundef %order) #0 {
entry:
  %k.addr = alloca ptr, align 8
  %tG.addr = alloca ptr, align 8
  %R.addr = alloca ptr, align 8
  %modulus.addr = alloca ptr, align 8
  %order.addr = alloca ptr, align 8
  %err = alloca i32, align 4
  %saved_stack = alloca ptr, align 8
  %__vla_expr0 = alloca i64, align 8
  %t = alloca ptr, align 8
  %kIsMinusOne = alloca i32, align 4
  store ptr %k, ptr %k.addr, align 8
  store ptr %tG, ptr %tG.addr, align 8
  store ptr %R, ptr %R.addr, align 8
  store ptr %modulus, ptr %modulus.addr, align 8
  store ptr %order, ptr %order.addr, align 8
  %0 = load ptr, ptr %order.addr, align 8
  %used = getelementptr inbounds %struct.sp_int, ptr %0, i32 0, i32 0
  %1 = load i32, ptr %used, align 8
  %mul = mul i32 %1, 64
  %add = add i32 %mul, 64
  %sub = sub i32 %add, 1
  %div = udiv i32 %sub, 64
  %mul1 = mul i32 %div, 2
  %add2 = add i32 %mul1, 1
  %cmp = icmp ule i32 %add2, 1
  br i1 %cmp, label %cond.true, label %cond.false

cond.true:                                        ; preds = %entry
  br label %cond.end

cond.false:                                       ; preds = %entry
  %2 = load ptr, ptr %order.addr, align 8
  %used3 = getelementptr inbounds %struct.sp_int, ptr %2, i32 0, i32 0
  %3 = load i32, ptr %used3, align 8
  %mul4 = mul i32 %3, 64
  %add5 = add i32 %mul4, 64
  %sub6 = sub i32 %add5, 1
  %div7 = udiv i32 %sub6, 64
  %mul8 = mul i32 %div7, 2
  %add9 = add i32 %mul8, 1
  %sub10 = sub i32 %add9, 1
  br label %cond.end

cond.end:                                         ; preds = %cond.false, %cond.true
  %cond = phi i32 [ 0, %cond.true ], [ %sub10, %cond.false ]
  %conv = zext i32 %cond to i64
  %mul11 = mul i64 %conv, 8
  %add12 = add i64 16, %mul11
  %4 = call ptr @llvm.stacksave.p0()
  store ptr %4, ptr %saved_stack, align 8
  %vla = alloca i8, i64 %add12, align 16
  store i64 %add12, ptr %__vla_expr0, align 8
  store ptr %vla, ptr %t, align 8
  %5 = load ptr, ptr %t, align 8
  %6 = load ptr, ptr %modulus.addr, align 8
  %used13 = getelementptr inbounds %struct.sp_int, ptr %6, i32 0, i32 0
  %7 = load i32, ptr %used13, align 8
  %mul14 = mul i32 %7, 64
  %add15 = add i32 %mul14, 64
  %sub16 = sub i32 %add15, 1
  %div17 = udiv i32 %sub16, 64
  %mul18 = mul i32 %div17, 2
  %add19 = add i32 %mul18, 1
  %cmp20 = icmp ule i32 %add19, 1
  br i1 %cmp20, label %cond.true22, label %cond.false23

cond.true22:                                      ; preds = %cond.end
  br label %cond.end32

cond.false23:                                     ; preds = %cond.end
  %8 = load ptr, ptr %modulus.addr, align 8
  %used24 = getelementptr inbounds %struct.sp_int, ptr %8, i32 0, i32 0
  %9 = load i32, ptr %used24, align 8
  %mul25 = mul i32 %9, 64
  %add26 = add i32 %mul25, 64
  %sub27 = sub i32 %add26, 1
  %div28 = udiv i32 %sub27, 64
  %mul29 = mul i32 %div28, 2
  %add30 = add i32 %mul29, 1
  %sub31 = sub i32 %add30, 1
  br label %cond.end32

cond.end32:                                       ; preds = %cond.false23, %cond.true22
  %cond33 = phi i32 [ 0, %cond.true22 ], [ %sub31, %cond.false23 ]
  %conv34 = zext i32 %cond33 to i64
  %mul35 = mul i64 %conv34, 8
  %add36 = add i64 16, %mul35
  call void @llvm.memset.p0.i64(ptr align 8 %5, i8 0, i64 %add36, i1 false)
  %10 = load ptr, ptr %t, align 8
  %11 = load ptr, ptr %modulus.addr, align 8
  %used37 = getelementptr inbounds %struct.sp_int, ptr %11, i32 0, i32 0
  %12 = load i32, ptr %used37, align 8
  %mul38 = mul i32 %12, 64
  %add39 = add i32 %mul38, 64
  %sub40 = sub i32 %add39, 1
  %div41 = udiv i32 %sub40, 64
  %mul42 = mul i32 %div41, 2
  %add43 = add i32 %mul42, 1
  %call = call i32 @sp_init_size(ptr noundef %10, i32 noundef %add43)
  store i32 %call, ptr %err, align 4
  %13 = load i32, ptr %err, align 4
  %cmp44 = icmp eq i32 %13, 0
  br i1 %cmp44, label %if.then, label %if.end77

if.then:                                          ; preds = %cond.end32
  %14 = load ptr, ptr %order.addr, align 8
  %15 = load ptr, ptr %t, align 8
  %call46 = call i32 @sp_sub_d(ptr noundef %14, i64 noundef 1, ptr noundef %15)
  store i32 %call46, ptr %err, align 4
  %16 = load i32, ptr %err, align 4
  %cmp47 = icmp eq i32 %16, 0
  br i1 %cmp47, label %if.then49, label %if.end76

if.then49:                                        ; preds = %if.then
  %17 = load ptr, ptr %k.addr, align 8
  %18 = load ptr, ptr %t, align 8
  %call50 = call i32 @sp_cmp(ptr noundef %17, ptr noundef %18)
  %cmp51 = icmp eq i32 %call50, 0
  %conv52 = zext i1 %cmp51 to i32
  store i32 %conv52, ptr %kIsMinusOne, align 4
  %19 = load ptr, ptr %tG.addr, align 8
  %x = getelementptr inbounds %struct.ecc_point, ptr %19, i32 0, i32 0
  %arraydecay = getelementptr inbounds [1 x %struct.sp_int], ptr %x, i64 0, i64 0
  %20 = load i32, ptr %kIsMinusOne, align 4
  %21 = load ptr, ptr %R.addr, align 8
  %x53 = getelementptr inbounds %struct.ecc_point, ptr %21, i32 0, i32 0
  %arraydecay54 = getelementptr inbounds [1 x %struct.sp_int], ptr %x53, i64 0, i64 0
  %call55 = call i32 @mp_cond_copy(ptr noundef %arraydecay, i32 noundef %20, ptr noundef %arraydecay54)
  store i32 %call55, ptr %err, align 4
  %22 = load i32, ptr %err, align 4
  %cmp56 = icmp eq i32 %22, 0
  br i1 %cmp56, label %if.then58, label %if.end

if.then58:                                        ; preds = %if.then49
  %23 = load ptr, ptr %modulus.addr, align 8
  %24 = load ptr, ptr %tG.addr, align 8
  %y = getelementptr inbounds %struct.ecc_point, ptr %24, i32 0, i32 1
  %arraydecay59 = getelementptr inbounds [1 x %struct.sp_int], ptr %y, i64 0, i64 0
  %25 = load ptr, ptr %t, align 8
  %call60 = call i32 @sp_sub(ptr noundef %23, ptr noundef %arraydecay59, ptr noundef %25)
  store i32 %call60, ptr %err, align 4
  br label %if.end

if.end:                                           ; preds = %if.then58, %if.then49
  %26 = load i32, ptr %err, align 4
  %cmp61 = icmp eq i32 %26, 0
  br i1 %cmp61, label %if.then63, label %if.end67

if.then63:                                        ; preds = %if.end
  %27 = load ptr, ptr %t, align 8
  %28 = load i32, ptr %kIsMinusOne, align 4
  %29 = load ptr, ptr %R.addr, align 8
  %y64 = getelementptr inbounds %struct.ecc_point, ptr %29, i32 0, i32 1
  %arraydecay65 = getelementptr inbounds [1 x %struct.sp_int], ptr %y64, i64 0, i64 0
  %call66 = call i32 @mp_cond_copy(ptr noundef %27, i32 noundef %28, ptr noundef %arraydecay65)
  store i32 %call66, ptr %err, align 4
  br label %if.end67

if.end67:                                         ; preds = %if.then63, %if.end
  %30 = load i32, ptr %err, align 4
  %cmp68 = icmp eq i32 %30, 0
  br i1 %cmp68, label %if.then70, label %if.end75

if.then70:                                        ; preds = %if.end67
  %31 = load ptr, ptr %tG.addr, align 8
  %z = getelementptr inbounds %struct.ecc_point, ptr %31, i32 0, i32 2
  %arraydecay71 = getelementptr inbounds [1 x %struct.sp_int], ptr %z, i64 0, i64 0
  %32 = load i32, ptr %kIsMinusOne, align 4
  %33 = load ptr, ptr %R.addr, align 8
  %z72 = getelementptr inbounds %struct.ecc_point, ptr %33, i32 0, i32 2
  %arraydecay73 = getelementptr inbounds [1 x %struct.sp_int], ptr %z72, i64 0, i64 0
  %call74 = call i32 @mp_cond_copy(ptr noundef %arraydecay71, i32 noundef %32, ptr noundef %arraydecay73)
  store i32 %call74, ptr %err, align 4
  br label %if.end75

if.end75:                                         ; preds = %if.then70, %if.end67
  br label %if.end76

if.end76:                                         ; preds = %if.end75, %if.then
  %34 = load ptr, ptr %t, align 8
  call void @sp_free(ptr noundef %34)
  br label %if.end77

if.end77:                                         ; preds = %if.end76, %cond.end32
  br label %do.body

do.body:                                          ; preds = %if.end77
  br label %do.cond

do.cond:                                          ; preds = %do.body
  br label %do.end

do.end:                                           ; preds = %do.cond
  %35 = load i32, ptr %err, align 4
  %36 = load ptr, ptr %saved_stack, align 8
  call void @llvm.stackrestore.p0(ptr %36)
  ret i32 %35
}