; Function Attrs: nounwind uwtable
define internal fastcc i32 @ecc_check_order_minus_1(ptr noundef nonnull %k, ptr noundef %tG, ptr noundef nonnull %R, ptr noundef nonnull %modulus, ptr noundef %order) unnamed_addr #2 {
entry:
  %0 = load i32, ptr %order, align 8
  %mul = shl i32 %0, 4
  %mul1 = and i32 %mul, 1073741808
  %narrow = add nuw nsw i32 %mul1, 16
  %1 = zext nneg i32 %narrow to i64
  %vla = alloca i8, i64 %1, align 16
  %2 = load i32, ptr %modulus, align 8
  %mul14 = shl i32 %2, 1
  %mul18 = and i32 %mul14, 134217726
  %3 = shl nuw nsw i32 %mul18, 3
  %narrow25 = add nuw nsw i32 %3, 16
  %4 = zext nneg i32 %narrow25 to i64
  call void @llvm.memset.p0.i64(ptr noundef nonnull align 16 dereferenceable(1) %vla, i8 0, i64 %4, i1 false)
  %add43 = or disjoint i32 %mul18, 1
  %call = call i32 @sp_init_size(ptr noundef nonnull %vla, i32 noundef %add43) #19
  %cmp44 = icmp eq i32 %call, 0
  br i1 %cmp44, label %if.then, label %do.end

if.then:                                          ; preds = %entry
  %call46 = call i32 @sp_sub_d(ptr noundef nonnull %order, i64 noundef 1, ptr noundef nonnull %vla) #19
  %cmp47 = icmp eq i32 %call46, 0
  br i1 %cmp47, label %if.then49, label %if.end76

if.then49:                                        ; preds = %if.then
  %call50 = call i32 @sp_cmp(ptr noundef nonnull %k, ptr noundef nonnull %vla) #19
  %cmp51 = icmp eq i32 %call50, 0
  %conv52 = zext i1 %cmp51 to i32
  %call55 = call i32 @mp_cond_copy(ptr noundef %tG, i32 noundef %conv52, ptr noundef nonnull %R) #19
  %cmp56 = icmp eq i32 %call55, 0
  br i1 %cmp56, label %if.end, label %if.end76

if.end:                                           ; preds = %if.then49
  %y = getelementptr inbounds nuw i8, ptr %tG, i64 1040
  %call60 = call i32 @sp_sub(ptr noundef nonnull %modulus, ptr noundef nonnull %y, ptr noundef nonnull %vla) #19
  %cmp61 = icmp eq i32 %call60, 0
  br i1 %cmp61, label %if.end67, label %if.end76

if.end67:                                         ; preds = %if.end
  %y64 = getelementptr inbounds nuw i8, ptr %R, i64 1040
  %call66 = call i32 @mp_cond_copy(ptr noundef nonnull %vla, i32 noundef %conv52, ptr noundef nonnull %y64) #19
  %cmp68 = icmp eq i32 %call66, 0
  br i1 %cmp68, label %if.then70, label %if.end76

if.then70:                                        ; preds = %if.end67
  %z = getelementptr inbounds nuw i8, ptr %tG, i64 2080
  %z72 = getelementptr inbounds nuw i8, ptr %R, i64 2080
  %call74 = call i32 @mp_cond_copy(ptr noundef nonnull %z, i32 noundef %conv52, ptr noundef nonnull %z72) #19
  br label %if.end76

if.end76:                                         ; preds = %if.then49, %if.end, %if.end67, %if.then70, %if.then
  %err.0 = phi i32 [ %call74, %if.then70 ], [ %call66, %if.end67 ], [ %call46, %if.then ], [ %call60, %if.end ], [ %call55, %if.then49 ]
  call void @sp_free(ptr noundef nonnull %vla) #19
  br label %do.end

do.end:                                           ; preds = %entry, %if.end76
  %err.3 = phi i32 [ %err.0, %if.end76 ], [ %call, %entry ]
  ret i32 %err.3
}